target datalayout = "e-m:e-p270:32:32-p271:32:32-p272:64:64-i64:64-i128:128-f80:128-n8:16:32:64-S128"
target triple = "x86_64-pc-linux-gnu"

%struct.PlannerInfo = type { i32, ptr, ptr, i32, ptr, ptr, ptr, ptr, i32, ptr, ptr, ptr, ptr, ptr, ptr, ptr, ptr, i32, ptr, ptr, ptr, ptr, ptr, i8, ptr, ptr, ptr, ptr, ptr, i32, ptr, ptr, ptr, ptr, ptr, ptr, ptr, i32, ptr, ptr, ptr, i32, ptr, ptr, ptr, ptr, ptr, ptr, [8 x ptr], [8 x ptr], ptr, ptr, ptr, ptr, ptr, ptr, ptr, double, double, double, i32, i8, i8, i8, i8, i8, i8, i8, i32, ptr, ptr, i32, i8, i8, i32, ptr, ptr, ptr, ptr, ptr, ptr, i8, ptr }
%struct.Query = type { i32, i32, i32, i64, i8, ptr, i32, i8, i8, i8, i8, i8, i8, i8, i8, i8, i8, i8, ptr, ptr, ptr, ptr, ptr, i32, ptr, ptr, i32, ptr, ptr, ptr, ptr, ptr, i8, ptr, ptr, ptr, ptr, ptr, ptr, ptr, i32, ptr, ptr, ptr, ptr, i32, i32 }

; Function Attrs: nounwind uwtable
define internal void @minmax_qp_callback(ptr noundef %0, ptr noundef %1) #0 {
  %3 = alloca ptr, align 8
  %4 = alloca ptr, align 8
  store ptr %0, ptr %3, align 8
  store ptr %1, ptr %4, align 8
  %5 = load ptr, ptr %3, align 8
  %6 = getelementptr inbounds nuw %struct.PlannerInfo, ptr %5, i32 0, i32 40
  store ptr null, ptr %6, align 8
  %7 = load ptr, ptr %3, align 8
  %8 = getelementptr inbounds nuw %struct.PlannerInfo, ptr %7, i32 0, i32 42
  store ptr null, ptr %8, align 8
  %9 = load ptr, ptr %3, align 8
  %10 = getelementptr inbounds nuw %struct.PlannerInfo, ptr %9, i32 0, i32 43
  store ptr null, ptr %10, align 8
  %11 = load ptr, ptr %3, align 8
  %12 = load ptr, ptr %3, align 8
  %13 = getelementptr inbounds nuw %struct.PlannerInfo, ptr %12, i32 0, i32 1
  %14 = load ptr, ptr %13, align 8
  %15 = getelementptr inbounds nuw %struct.Query, ptr %14, i32 0, i32 37
  %16 = load ptr, ptr %15, align 8
  %17 = load ptr, ptr %3, align 8
  %18 = getelementptr inbounds nuw %struct.PlannerInfo, ptr %17, i32 0, i32 1
  %19 = load ptr, ptr %18, align 8
  %20 = getelementptr inbounds nuw %struct.Query, ptr %19, i32 0, i32 25
  %21 = load ptr, ptr %20, align 8
  %22 = call ptr @make_pathkeys_for_sortclauses(ptr noundef %11, ptr noundef %16, ptr noundef %21)
  %23 = load ptr, ptr %3, align 8
  %24 = getelementptr inbounds nuw %struct.PlannerInfo, ptr %23, i32 0, i32 44
  store ptr %22, ptr %24, align 8
  %25 = load ptr, ptr %3, align 8
  %26 = getelementptr inbounds nuw %struct.PlannerInfo, ptr %25, i32 0, i32 44
  %27 = load ptr, ptr %26, align 8
  %28 = load ptr, ptr %3, align 8
  %29 = getelementptr inbounds nuw %struct.PlannerInfo, ptr %28, i32 0, i32 39
  store ptr %27, ptr %29, align 8
  ret void
}