; Function Attrs: nounwind uwtable
define internal void @minmax_qp_callback(ptr noundef initializes((320, 328), (336, 352)) %0, ptr readnone captures(none) %1) #0 {
  %3 = getelementptr inbounds nuw i8, ptr %0, i64 320
  store ptr null, ptr %3, align 8
  %4 = getelementptr inbounds nuw i8, ptr %0, i64 336
  %5 = getelementptr inbounds nuw i8, ptr %0, i64 8
  tail call void @llvm.memset.p0.i64(ptr noundef nonnull align 8 dereferenceable(16) %4, i8 0, i64 16, i1 false)
  %6 = load ptr, ptr %5, align 8
  %7 = getelementptr inbounds nuw i8, ptr %6, i64 208
  %8 = load ptr, ptr %7, align 8
  %9 = getelementptr inbounds nuw i8, ptr %6, i64 112
  %10 = load ptr, ptr %9, align 8
  %11 = tail call ptr @make_pathkeys_for_sortclauses(ptr noundef %0, ptr noundef %8, ptr noundef %10) #8
  %12 = getelementptr inbounds nuw i8, ptr %0, i64 352
  store ptr %11, ptr %12, align 8
  %13 = getelementptr inbounds nuw i8, ptr %0, i64 312
  store ptr %11, ptr %13, align 8
  ret void
}